; Function Attrs: mustprogress uwtable
define hidden void @_ZN4lean16phashmap_foreachEP11lean_objectRKSt8functionIFvS1_S1_EE(ptr noundef readonly captures(none) %0, ptr noundef nonnull align 8 dereferenceable(32) %1) local_unnamed_addr #0 {
  %3 = alloca %"class.lean::phashmap_visitor_fn", align 8
  call void @llvm.lifetime.start.p0(i64 8, ptr nonnull %3) #8
  store ptr %1, ptr %3, align 8, !tbaa !3
  %4 = getelementptr inbounds nuw i8, ptr %0, i64 8
  %5 = load ptr, ptr %4, align 8, !tbaa !8
  call void @_ZN4lean19phashmap_visitor_fn10visit_nodeEP11lean_object(ptr noundef nonnull align 8 dereferenceable(8) %3, ptr noundef %5)
  call void @llvm.lifetime.end.p0(i64 8, ptr nonnull %3) #8
  ret void
}